target datalayout = "e-m:e-p270:32:32-p271:32:32-p272:64:64-i64:64-i128:128-f80:128-n8:16:32:64-S128"
target triple = "x86_64-pc-linux-gnu"

%struct._asn1_ctx_t = type { i32, i32, i8, ptr, ptr, ptr, ptr, ptr, %struct.anon, %struct.anon.2, %struct.anon.3, ptr }
%struct.anon = type { i32, i8, i8, i8, ptr, ptr, i32, i32, ptr, ptr, ptr, %union.anon }
%union.anon = type { %struct.anon.0 }
%struct.anon.0 = type { ptr }
%struct.anon.2 = type { ptr, ptr, ptr }
%struct.anon.3 = type { i32, i8, ptr, i32, i32, ptr, ptr, ptr, %union.anon.4 }
%union.anon.4 = type { %struct.anon.5 }
%struct.anon.5 = type { ptr }

; Function Attrs: null_pointer_is_valid sspstrong uwtable
define internal i32 @dissect_acse_T_octet_aligned(i1 noundef zeroext %0, ptr noundef %1, i32 noundef %2, ptr noundef %3, ptr noundef %4, i32 noundef %5) #0 {
  %7 = alloca i8, align 1
  %8 = alloca ptr, align 8
  %9 = alloca i32, align 4
  %10 = alloca ptr, align 8
  %11 = alloca ptr, align 8
  %12 = alloca i32, align 4
  %13 = zext i1 %0 to i8
  store i8 %13, ptr %7, align 1
  store ptr %1, ptr %8, align 8
  store i32 %2, ptr %9, align 4
  store ptr %3, ptr %10, align 8
  store ptr %4, ptr %11, align 8
  store i32 %5, ptr %12, align 4
  %14 = load ptr, ptr %10, align 8
  %15 = getelementptr inbounds nuw %struct._asn1_ctx_t, ptr %14, i32 0, i32 8
  %16 = getelementptr inbounds nuw %struct.anon, ptr %15, i32 0, i32 2
  %17 = load i8, ptr %16, align 1, !range !6, !noundef !7
  %18 = trunc i8 %17 to i1
  br i1 %18, label %19, label %47

19:                                               ; preds = %6
  %20 = load ptr, ptr %10, align 8
  %21 = getelementptr inbounds nuw %struct._asn1_ctx_t, ptr %20, i32 0, i32 8
  %22 = getelementptr inbounds nuw %struct.anon, ptr %21, i32 0, i32 5
  %23 = load ptr, ptr %22, align 8
  %24 = load ptr, ptr %8, align 8
  %25 = load i32, ptr %9, align 4
  %26 = load ptr, ptr %10, align 8
  %27 = getelementptr inbounds nuw %struct._asn1_ctx_t, ptr %26, i32 0, i32 3
  %28 = load ptr, ptr %27, align 8
  %29 = load ptr, ptr %10, align 8
  %30 = getelementptr inbounds nuw %struct._asn1_ctx_t, ptr %29, i32 0, i32 9
  %31 = getelementptr inbounds nuw %struct.anon.2, ptr %30, i32 0, i32 1
  %32 = load ptr, ptr %31, align 8
  %33 = icmp ne ptr %32, null
  br i1 %33, label %34, label %39

34:                                               ; preds = %19
  %35 = load ptr, ptr %10, align 8
  %36 = getelementptr inbounds nuw %struct._asn1_ctx_t, ptr %35, i32 0, i32 9
  %37 = getelementptr inbounds nuw %struct.anon.2, ptr %36, i32 0, i32 1
  %38 = load ptr, ptr %37, align 8
  br label %41

39:                                               ; preds = %19
  %40 = load ptr, ptr %11, align 8
  br label %41

41:                                               ; preds = %39, %34
  %42 = phi ptr [ %38, %34 ], [ %40, %39 ]
  %43 = load ptr, ptr %10, align 8
  %44 = getelementptr inbounds nuw %struct._asn1_ctx_t, ptr %43, i32 0, i32 7
  %45 = load ptr, ptr %44, align 8
  %46 = call i32 @call_ber_oid_callback(ptr noundef %23, ptr noundef %24, i32 noundef %25, ptr noundef %28, ptr noundef %42, ptr noundef %45)
  store i32 %46, ptr %9, align 4
  br label %47

47:                                               ; preds = %41, %6
  %48 = load i32, ptr %9, align 4
  ret i32 %48
}